target datalayout = "e-m:e-p270:32:32-p271:32:32-p272:64:64-i64:64-i128:128-f80:128-n8:16:32:64-S128"
target triple = "x86_64-pc-linux-gnu"

%struct.strbuf = type { i64, i64, ptr }
%struct.apply_state = type { ptr, %struct.lock_file, i32, i32, i32, i32, i32, i32, i32, i32, i32, i32, i32, i32, i32, i32, i32, i32, i32, ptr, ptr, i32, i32, ptr, ptr, i32, %struct.strbuf, i32, i32, i32, %struct.string_list, i32, i32, %struct.strset, %struct.strset, i32, i32, %struct.string_list, ptr, ptr, i32, i32, ptr, i32, i32, i32 }
%struct.lock_file = type { ptr }
%struct.strset = type { %struct.strmap }
%struct.strmap = type { %struct.hashmap, ptr, i8 }
%struct.hashmap = type { ptr, ptr, ptr, i32, i32, i32, i32, i8 }
%struct.string_list = type { ptr, i64, i64, i8, ptr }

@sane_ctype = external constant [256 x i8], align 16
@.str.130 = private unnamed_addr constant [10 x i8] c"/dev/null\00", align 1

; Function Attrs: inlinehint nounwind uwtable
define internal zeroext i1 @skip_prefix(ptr noundef %0, ptr noundef %1, ptr noundef %2) #3 {
  %4 = alloca i1, align 1
  %5 = alloca ptr, align 8
  %6 = alloca ptr, align 8
  %7 = alloca ptr, align 8
  store ptr %0, ptr %5, align 8, !tbaa !11
  store ptr %1, ptr %6, align 8, !tbaa !11
  store ptr %2, ptr %7, align 8, !tbaa !119
  br label %8

8:                                                ; preds = %16, %3
  %9 = load ptr, ptr %6, align 8, !tbaa !11
  %10 = load i8, ptr %9, align 1, !tbaa !57
  %11 = icmp ne i8 %10, 0
  br i1 %11, label %15, label %12

12:                                               ; preds = %8
  %13 = load ptr, ptr %5, align 8, !tbaa !11
  %14 = load ptr, ptr %7, align 8, !tbaa !119
  store ptr %13, ptr %14, align 8, !tbaa !11
  store i1 true, ptr %4, align 1
  br label %27

15:                                               ; preds = %8
  br label %16

16:                                               ; preds = %15
  %17 = load ptr, ptr %5, align 8, !tbaa !11
  %18 = getelementptr inbounds nuw i8, ptr %17, i32 1
  store ptr %18, ptr %5, align 8, !tbaa !11
  %19 = load i8, ptr %17, align 1, !tbaa !57
  %20 = sext i8 %19 to i32
  %21 = load ptr, ptr %6, align 8, !tbaa !11
  %22 = getelementptr inbounds nuw i8, ptr %21, i32 1
  store ptr %22, ptr %6, align 8, !tbaa !11
  %23 = load i8, ptr %21, align 1, !tbaa !57
  %24 = sext i8 %23 to i32
  %25 = icmp eq i32 %20, %24
  br i1 %25, label %8, label %26, !llvm.loop !163

26:                                               ; preds = %16
  store i1 false, ptr %4, align 1
  br label %27

27:                                               ; preds = %26, %12
  %28 = load i1, ptr %4, align 1
  ret i1 %28
}

; Function Attrs: nounwind uwtable
define internal i32 @is_dev_null(ptr noundef %0) #0 {
  %2 = alloca ptr, align 8
  store ptr %0, ptr %2, align 8, !tbaa !11
  %3 = load ptr, ptr %2, align 8, !tbaa !11
  %4 = call zeroext i1 @skip_prefix(ptr noundef %3, ptr noundef @.str.130, ptr noundef %2)
  br i1 %4, label %5, label %14

5:                                                ; preds = %1
  %6 = load ptr, ptr %2, align 8, !tbaa !11
  %7 = load i8, ptr %6, align 1, !tbaa !57
  %8 = zext i8 %7 to i64
  %9 = getelementptr inbounds nuw [256 x i8], ptr @sane_ctype, i64 0, i64 %8
  %10 = load i8, ptr %9, align 1, !tbaa !57
  %11 = zext i8 %10 to i32
  %12 = and i32 %11, 1
  %13 = icmp ne i32 %12, 0
  br label %14

14:                                               ; preds = %5, %1
  %15 = phi i1 [ false, %1 ], [ %13, %5 ]
  %16 = zext i1 %15 to i32
  ret i32 %16
}

; Function Attrs: nounwind uwtable
define internal i32 @guess_p_value(ptr noundef %0, ptr noundef %1) #0 {
  %3 = alloca i32, align 4
  %4 = alloca ptr, align 8
  %5 = alloca ptr, align 8
  %6 = alloca ptr, align 8
  %7 = alloca ptr, align 8
  %8 = alloca i32, align 4
  %9 = alloca i32, align 4
  store ptr %0, ptr %4, align 8, !tbaa !4
  store ptr %1, ptr %5, align 8, !tbaa !11
  call void @llvm.lifetime.start.p0(i64 8, ptr %6) #12
  call void @llvm.lifetime.start.p0(i64 8, ptr %7) #12
  call void @llvm.lifetime.start.p0(i64 4, ptr %8) #12
  store i32 -1, ptr %8, align 4, !tbaa !39
  %10 = load ptr, ptr %5, align 8, !tbaa !11
  %11 = call i32 @is_dev_null(ptr noundef %10)
  %12 = icmp ne i32 %11, 0
  br i1 %12, label %13, label %14

13:                                               ; preds = %2
  store i32 -1, ptr %3, align 4
  store i32 1, ptr %9, align 4
  br label %66

14:                                               ; preds = %2
  %15 = load ptr, ptr %4, align 8, !tbaa !4
  %16 = getelementptr inbounds nuw %struct.apply_state, ptr %15, i32 0, i32 26
  %17 = load ptr, ptr %5, align 8, !tbaa !11
  %18 = call ptr @find_name_traditional(ptr noundef %16, ptr noundef %17, ptr noundef null, i32 noundef 0)
  store ptr %18, ptr %6, align 8, !tbaa !11
  %19 = load ptr, ptr %6, align 8, !tbaa !11
  %20 = icmp ne ptr %19, null
  br i1 %20, label %22, label %21

21:                                               ; preds = %14
  store i32 -1, ptr %3, align 4
  store i32 1, ptr %9, align 4
  br label %66

22:                                               ; preds = %14
  %23 = load ptr, ptr %6, align 8, !tbaa !11
  %24 = call ptr @strchr(ptr noundef %23, i32 noundef 47) #11
  store ptr %24, ptr %7, align 8, !tbaa !11
  %25 = load ptr, ptr %7, align 8, !tbaa !11
  %26 = icmp ne ptr %25, null
  br i1 %26, label %28, label %27

27:                                               ; preds = %22
  store i32 0, ptr %8, align 4, !tbaa !39
  br label %63

28:                                               ; preds = %22
  %29 = load ptr, ptr %4, align 8, !tbaa !4
  %30 = getelementptr inbounds nuw %struct.apply_state, ptr %29, i32 0, i32 0
  %31 = load ptr, ptr %30, align 8, !tbaa !13
  %32 = icmp ne ptr %31, null
  br i1 %32, label %33, label %62

33:                                               ; preds = %28
  %34 = load ptr, ptr %6, align 8, !tbaa !11
  %35 = load ptr, ptr %4, align 8, !tbaa !4
  %36 = getelementptr inbounds nuw %struct.apply_state, ptr %35, i32 0, i32 0
  %37 = load ptr, ptr %36, align 8, !tbaa !13
  %38 = call i32 @starts_with(ptr noundef %34, ptr noundef %37)
  %39 = icmp ne i32 %38, 0
  br i1 %39, label %40, label %45

40:                                               ; preds = %33
  %41 = load ptr, ptr %4, align 8, !tbaa !4
  %42 = getelementptr inbounds nuw %struct.apply_state, ptr %41, i32 0, i32 0
  %43 = load ptr, ptr %42, align 8, !tbaa !13
  %44 = call i32 @count_slashes(ptr noundef %43)
  store i32 %44, ptr %8, align 4, !tbaa !39
  br label %61

45:                                               ; preds = %33
  %46 = load ptr, ptr %7, align 8, !tbaa !11
  %47 = getelementptr inbounds nuw i8, ptr %46, i32 1
  store ptr %47, ptr %7, align 8, !tbaa !11
  %48 = load ptr, ptr %7, align 8, !tbaa !11
  %49 = load ptr, ptr %4, align 8, !tbaa !4
  %50 = getelementptr inbounds nuw %struct.apply_state, ptr %49, i32 0, i32 0
  %51 = load ptr, ptr %50, align 8, !tbaa !13
  %52 = call i32 @starts_with(ptr noundef %48, ptr noundef %51)
  %53 = icmp ne i32 %52, 0
  br i1 %53, label %54, label %60

54:                                               ; preds = %45
  %55 = load ptr, ptr %4, align 8, !tbaa !4
  %56 = getelementptr inbounds nuw %struct.apply_state, ptr %55, i32 0, i32 0
  %57 = load ptr, ptr %56, align 8, !tbaa !13
  %58 = call i32 @count_slashes(ptr noundef %57)
  %59 = add nsw i32 %58, 1
  store i32 %59, ptr %8, align 4, !tbaa !39
  br label %60

60:                                               ; preds = %54, %45
  br label %61

61:                                               ; preds = %60, %40
  br label %62

62:                                               ; preds = %61, %28
  br label %63

63:                                               ; preds = %62, %27
  %64 = load ptr, ptr %6, align 8, !tbaa !11
  call void @free(ptr noundef %64) #12
  %65 = load i32, ptr %8, align 4, !tbaa !39
  store i32 %65, ptr %3, align 4
  store i32 1, ptr %9, align 4
  br label %66

66:                                               ; preds = %63, %21, %13
  call void @llvm.lifetime.end.p0(i64 4, ptr %8) #12
  call void @llvm.lifetime.end.p0(i64 8, ptr %7) #12
  call void @llvm.lifetime.end.p0(i64 8, ptr %6) #12
  %67 = load i32, ptr %3, align 4
  ret i32 %67
}