; Function Attrs: nounwind uwtable
define internal fastcc i32 @guess_p_value(ptr noundef readonly captures(none) %0, ptr noundef %1) unnamed_addr #0 {
  %scevgep.i = getelementptr i8, ptr %1, i64 9
  br label %3

3:                                                ; preds = %4, %2
  %.07.i.i = phi ptr [ %1, %2 ], [ %6, %4 ]
  %.06.i.idx.i = phi i64 [ 0, %2 ], [ %.06.i.add.i, %4 ]
  %exitcond.i = icmp eq i64 %.06.i.idx.i, 9
  br i1 %exitcond.i, label %is_dev_null.exit, label %4

4:                                                ; preds = %3
  %.06.i.ptr.i = getelementptr inbounds nuw i8, ptr @.str.130, i64 %.06.i.idx.i
  %5 = load i8, ptr %.06.i.ptr.i, align 1, !tbaa !53
  %6 = getelementptr inbounds nuw i8, ptr %.07.i.i, i64 1
  %7 = load i8, ptr %.07.i.i, align 1, !tbaa !53
  %.06.i.add.i = add nuw nsw i64 %.06.i.idx.i, 1
  %8 = icmp eq i8 %7, %5
  br i1 %8, label %3, label %is_dev_null.exit.thread, !llvm.loop !115

is_dev_null.exit:                                 ; preds = %3
  %9 = load i8, ptr %scevgep.i, align 1, !tbaa !53
  %10 = zext i8 %9 to i64
  %11 = getelementptr inbounds nuw [256 x i8], ptr @sane_ctype, i64 0, i64 %10
  %12 = load i8, ptr %11, align 1, !tbaa !53
  %13 = and i8 %12, 1
  %.not = icmp eq i8 %13, 0
  br i1 %.not, label %is_dev_null.exit.thread, label %34

is_dev_null.exit.thread:                          ; preds = %4, %is_dev_null.exit
  %14 = getelementptr inbounds nuw i8, ptr %0, i64 136
  %15 = tail call fastcc ptr @find_name_traditional(ptr noundef nonnull %14, ptr noundef %1, ptr noundef null, i32 noundef 0)
  %.not20 = icmp eq ptr %15, null
  br i1 %.not20, label %34, label %16

16:                                               ; preds = %is_dev_null.exit.thread
  %17 = tail call ptr @strchr(ptr noundef nonnull dereferenceable(1) %15, i32 noundef 47) #22
  %.not21 = icmp eq ptr %17, null
  br i1 %.not21, label %33, label %18

18:                                               ; preds = %16
  %19 = load ptr, ptr %0, align 8, !tbaa !4
  %.not22 = icmp eq ptr %19, null
  br i1 %.not22, label %33, label %20

20:                                               ; preds = %18
  %21 = tail call i32 @starts_with(ptr noundef nonnull %15, ptr noundef nonnull %19) #21
  %.not23 = icmp eq i32 %21, 0
  br i1 %.not23, label %25, label %22

22:                                               ; preds = %20
  %23 = load ptr, ptr %0, align 8, !tbaa !4
  %24 = tail call i32 @count_slashes(ptr noundef %23) #21
  br label %33

25:                                               ; preds = %20
  %26 = getelementptr inbounds nuw i8, ptr %17, i64 1
  %27 = load ptr, ptr %0, align 8, !tbaa !4
  %28 = tail call i32 @starts_with(ptr noundef nonnull %26, ptr noundef %27) #21
  %.not24 = icmp eq i32 %28, 0
  br i1 %.not24, label %33, label %29

29:                                               ; preds = %25
  %30 = load ptr, ptr %0, align 8, !tbaa !4
  %31 = tail call i32 @count_slashes(ptr noundef %30) #21
  %32 = add nsw i32 %31, 1
  br label %33

33:                                               ; preds = %16, %18, %25, %29, %22
  %.0 = phi i32 [ %24, %22 ], [ %32, %29 ], [ -1, %25 ], [ -1, %18 ], [ 0, %16 ]
  tail call void @free(ptr noundef nonnull %15) #21
  br label %34

34:                                               ; preds = %is_dev_null.exit.thread, %is_dev_null.exit, %33
  %.016 = phi i32 [ %.0, %33 ], [ -1, %is_dev_null.exit ], [ -1, %is_dev_null.exit.thread ]
  ret i32 %.016
}